; Function Attrs: nounwind uwtable
define hidden zeroext i1 @SDL_EnumerateDirectory_REAL(ptr noundef %0, ptr noundef %1, ptr noundef %2) local_unnamed_addr #0 {
  %.not = icmp eq ptr %0, null
  br i1 %.not, label %4, label %6

4:                                                ; preds = %3
  %5 = tail call zeroext i1 (ptr, ...) @SDL_SetError_REAL(ptr noundef nonnull @.str, ptr noundef nonnull @.str.1) #8
  br label %11

6:                                                ; preds = %3
  %.not8 = icmp eq ptr %1, null
  br i1 %.not8, label %7, label %9

7:                                                ; preds = %6
  %8 = tail call zeroext i1 (ptr, ...) @SDL_SetError_REAL(ptr noundef nonnull @.str, ptr noundef nonnull @.str.4) #8
  br label %11

9:                                                ; preds = %6
  %10 = tail call zeroext i1 @SDL_SYS_EnumerateDirectory(ptr noundef nonnull %0, ptr noundef nonnull %1, ptr noundef %2) #8
  br label %11

11:                                               ; preds = %9, %7, %4
  %.0 = phi i1 [ %10, %9 ], [ %8, %7 ], [ %5, %4 ]
  ret i1 %.0
}